target datalayout = "e-m:e-p270:32:32-p271:32:32-p272:64:64-i64:64-i128:128-f80:128-n8:16:32:64-S128"
target triple = "x86_64-pc-linux-gnu"

%class.anon.156 = type { ptr }

; Function Attrs: mustprogress nounwind uwtable
define internal void @"_ZZN4llvm8TGParser28resolveArgumentsOfMultiClassERNS_11SmallVectorISt4pairIPNS_4InitES4_ELj8EEEPNS_10MultiClassENS_8ArrayRefIPNS_12ArgumentInitEEES4_NS_5SMLocEENK3$_0clES4_S4_"(ptr noundef nonnull align 8 dereferenceable(8) %0, ptr noundef %1, ptr noundef %2) #0 align 2 {
  %4 = alloca ptr, align 8
  %5 = alloca ptr, align 8
  %6 = alloca ptr, align 8
  store ptr %0, ptr %4, align 8
  store ptr %1, ptr %5, align 8
  store ptr %2, ptr %6, align 8
  %7 = load ptr, ptr %4, align 8
  %8 = getelementptr inbounds nuw %class.anon.156, ptr %7, i32 0, i32 0
  %9 = load ptr, ptr %8, align 8
  %10 = call noundef nonnull align 8 dereferenceable(16) ptr @_ZN4llvm15SmallVectorImplISt4pairIPNS_4InitES3_EE12emplace_backIJRS3_S7_EEERS4_DpOT_(ptr noundef nonnull align 8 dereferenceable(16) %9, ptr noundef nonnull align 8 dereferenceable(8) %5, ptr noundef nonnull align 8 dereferenceable(8) %6)
  ret void
}

; Function Attrs: mustprogress nounwind uwtable
define linkonce_odr hidden noundef ptr @_ZNKSt9_Any_data9_M_accessEv(ptr noundef nonnull align 8 dereferenceable(16) %0) #0 comdat align 2 {
  %2 = alloca ptr, align 8
  store ptr %0, ptr %2, align 8
  %3 = load ptr, ptr %2, align 8
  %4 = getelementptr inbounds [16 x i8], ptr %3, i64 0, i64 0
  ret ptr %4
}

; Function Attrs: mustprogress nounwind uwtable
define internal void @"_ZSt13__invoke_implIvRZN4llvm8TGParser28resolveArgumentsOfMultiClassERNS0_11SmallVectorISt4pairIPNS0_4InitES5_ELj8EEEPNS0_10MultiClassENS0_8ArrayRefIPNS0_12ArgumentInitEEES5_NS0_5SMLocEE3$_0JS5_S5_EET_St14__invoke_otherOT0_DpOT1_"(ptr noundef nonnull align 8 dereferenceable(8) %0, ptr noundef nonnull align 8 dereferenceable(8) %1, ptr noundef nonnull align 8 dereferenceable(8) %2) #0 {
  %4 = alloca ptr, align 8
  %5 = alloca ptr, align 8
  %6 = alloca ptr, align 8
  store ptr %0, ptr %4, align 8
  store ptr %1, ptr %5, align 8
  store ptr %2, ptr %6, align 8
  %7 = load ptr, ptr %4, align 8
  %8 = load ptr, ptr %5, align 8
  %9 = load ptr, ptr %8, align 8
  %10 = load ptr, ptr %6, align 8
  %11 = load ptr, ptr %10, align 8
  call void @"_ZZN4llvm8TGParser28resolveArgumentsOfMultiClassERNS_11SmallVectorISt4pairIPNS_4InitES4_ELj8EEEPNS_10MultiClassENS_8ArrayRefIPNS_12ArgumentInitEEES4_NS_5SMLocEENK3$_0clES4_S4_"(ptr noundef nonnull align 8 dereferenceable(8) %7, ptr noundef %9, ptr noundef %11)
  ret void
}

; Function Attrs: mustprogress nounwind uwtable
define internal noundef nonnull align 8 dereferenceable(8) ptr @"_ZNKSt9_Any_data9_M_accessIZN4llvm8TGParser28resolveArgumentsOfMultiClassERNS1_11SmallVectorISt4pairIPNS1_4InitES6_ELj8EEEPNS1_10MultiClassENS1_8ArrayRefIPNS1_12ArgumentInitEEES6_NS1_5SMLocEE3$_0EERKT_v"(ptr noundef nonnull align 8 dereferenceable(16) %0) #0 align 2 {
  %2 = alloca ptr, align 8
  store ptr %0, ptr %2, align 8
  %3 = load ptr, ptr %2, align 8
  %4 = call noundef ptr @_ZNKSt9_Any_data9_M_accessEv(ptr noundef nonnull align 8 dereferenceable(16) %3) #11
  ret ptr %4
}

; Function Attrs: mustprogress nounwind uwtable
define internal void @"_ZSt10__invoke_rIvRZN4llvm8TGParser28resolveArgumentsOfMultiClassERNS0_11SmallVectorISt4pairIPNS0_4InitES5_ELj8EEEPNS0_10MultiClassENS0_8ArrayRefIPNS0_12ArgumentInitEEES5_NS0_5SMLocEE3$_0JS5_S5_EENSt9enable_ifIX16is_invocable_r_vIT_T0_DpT1_EESJ_E4typeEOSK_DpOSL_"(ptr noundef nonnull align 8 dereferenceable(8) %0, ptr noundef nonnull align 8 dereferenceable(8) %1, ptr noundef nonnull align 8 dereferenceable(8) %2) #0 {
  %4 = alloca ptr, align 8
  %5 = alloca ptr, align 8
  %6 = alloca ptr, align 8
  store ptr %0, ptr %4, align 8
  store ptr %1, ptr %5, align 8
  store ptr %2, ptr %6, align 8
  %7 = load ptr, ptr %4, align 8
  %8 = load ptr, ptr %5, align 8
  %9 = load ptr, ptr %6, align 8
  call void @"_ZSt13__invoke_implIvRZN4llvm8TGParser28resolveArgumentsOfMultiClassERNS0_11SmallVectorISt4pairIPNS0_4InitES5_ELj8EEEPNS0_10MultiClassENS0_8ArrayRefIPNS0_12ArgumentInitEEES5_NS0_5SMLocEE3$_0JS5_S5_EET_St14__invoke_otherOT0_DpOT1_"(ptr noundef nonnull align 8 dereferenceable(8) %7, ptr noundef nonnull align 8 dereferenceable(8) %8, ptr noundef nonnull align 8 dereferenceable(8) %9)
  ret void
}

; Function Attrs: mustprogress nounwind uwtable
define internal noundef ptr @"_ZNSt14_Function_base13_Base_managerIZN4llvm8TGParser28resolveArgumentsOfMultiClassERNS1_11SmallVectorISt4pairIPNS1_4InitES6_ELj8EEEPNS1_10MultiClassENS1_8ArrayRefIPNS1_12ArgumentInitEEES6_NS1_5SMLocEE3$_0E14_M_get_pointerERKSt9_Any_data"(ptr noundef nonnull align 8 dereferenceable(16) %0) #0 align 2 {
  %2 = alloca ptr, align 8
  %3 = alloca ptr, align 8
  store ptr %0, ptr %2, align 8
  %4 = load ptr, ptr %2, align 8
  %5 = call noundef nonnull align 8 dereferenceable(8) ptr @"_ZNKSt9_Any_data9_M_accessIZN4llvm8TGParser28resolveArgumentsOfMultiClassERNS1_11SmallVectorISt4pairIPNS1_4InitES6_ELj8EEEPNS1_10MultiClassENS1_8ArrayRefIPNS1_12ArgumentInitEEES6_NS1_5SMLocEE3$_0EERKT_v"(ptr noundef nonnull align 8 dereferenceable(16) %4) #11
  store ptr %5, ptr %3, align 8
  %6 = load ptr, ptr %3, align 8
  ret ptr %6
}

; Function Attrs: mustprogress nounwind uwtable
define internal void @"_ZNSt17_Function_handlerIFvPN4llvm4InitES2_EZNS0_8TGParser28resolveArgumentsOfMultiClassERNS0_11SmallVectorISt4pairIS2_S2_ELj8EEEPNS0_10MultiClassENS0_8ArrayRefIPNS0_12ArgumentInitEEES2_NS0_5SMLocEE3$_0E9_M_invokeERKSt9_Any_dataOS2_SM_"(ptr noundef nonnull align 8 dereferenceable(16) %0, ptr noundef nonnull align 8 dereferenceable(8) %1, ptr noundef nonnull align 8 dereferenceable(8) %2) #0 align 2 {
  %4 = alloca ptr, align 8
  %5 = alloca ptr, align 8
  %6 = alloca ptr, align 8
  store ptr %0, ptr %4, align 8
  store ptr %1, ptr %5, align 8
  store ptr %2, ptr %6, align 8
  %7 = load ptr, ptr %4, align 8
  %8 = call noundef ptr @"_ZNSt14_Function_base13_Base_managerIZN4llvm8TGParser28resolveArgumentsOfMultiClassERNS1_11SmallVectorISt4pairIPNS1_4InitES6_ELj8EEEPNS1_10MultiClassENS1_8ArrayRefIPNS1_12ArgumentInitEEES6_NS1_5SMLocEE3$_0E14_M_get_pointerERKSt9_Any_data"(ptr noundef nonnull align 8 dereferenceable(16) %7) #11
  %9 = load ptr, ptr %5, align 8
  %10 = load ptr, ptr %6, align 8
  call void @"_ZSt10__invoke_rIvRZN4llvm8TGParser28resolveArgumentsOfMultiClassERNS0_11SmallVectorISt4pairIPNS0_4InitES5_ELj8EEEPNS0_10MultiClassENS0_8ArrayRefIPNS0_12ArgumentInitEEES5_NS0_5SMLocEE3$_0JS5_S5_EENSt9enable_ifIX16is_invocable_r_vIT_T0_DpT1_EESJ_E4typeEOSK_DpOSL_"(ptr noundef nonnull align 8 dereferenceable(8) %8, ptr noundef nonnull align 8 dereferenceable(8) %9, ptr noundef nonnull align 8 dereferenceable(8) %10)
  ret void
}