; Function Attrs: mustprogress nounwind uwtable
define internal void @"_ZNSt17_Function_handlerIFvPN4llvm4InitES2_EZNS0_8TGParser28resolveArgumentsOfMultiClassERNS0_11SmallVectorISt4pairIS2_S2_ELj8EEEPNS0_10MultiClassENS0_8ArrayRefIPNS0_12ArgumentInitEEES2_NS0_5SMLocEE3$_0E9_M_invokeERKSt9_Any_dataOS2_SM_"(ptr noundef nonnull readonly align 8 captures(none) dereferenceable(16) %0, ptr noundef nonnull readonly align 8 captures(none) dereferenceable(8) %1, ptr noundef nonnull readonly align 8 captures(none) dereferenceable(8) %2) #0 align 2 {
  %4 = alloca ptr, align 8
  %5 = alloca ptr, align 8
  %.val = load ptr, ptr %0, align 8
  %.val3 = load ptr, ptr %1, align 8
  %.val4 = load ptr, ptr %2, align 8
  call void @llvm.lifetime.start.p0(i64 8, ptr nonnull %4)
  call void @llvm.lifetime.start.p0(i64 8, ptr nonnull %5)
  store ptr %.val3, ptr %4, align 8
  store ptr %.val4, ptr %5, align 8
  %6 = call noundef nonnull align 8 dereferenceable(16) ptr @_ZN4llvm15SmallVectorImplISt4pairIPNS_4InitES3_EE12emplace_backIJRS3_S7_EEERS4_DpOT_(ptr noundef nonnull align 8 dereferenceable(16) %.val, ptr noundef nonnull align 8 dereferenceable(8) %4, ptr noundef nonnull align 8 dereferenceable(8) %5)
  call void @llvm.lifetime.end.p0(i64 8, ptr nonnull %4)
  call void @llvm.lifetime.end.p0(i64 8, ptr nonnull %5)
  ret void
}